; Function Attrs: mustprogress uwtable
define void @_ZN7rocksdb18GenericRateLimiter17SetBytesPerSecondEl(ptr noundef nonnull align 8 dereferenceable(608) %this, i64 noundef %bytes_per_second) unnamed_addr #0 align 2 personality ptr @__gxx_personality_v0 {
invoke.cont:
  %request_mutex_ = getelementptr inbounds i8, ptr %this, i64 16
  tail call void @_ZN7rocksdb4port5Mutex4LockEv(ptr noundef nonnull align 8 dereferenceable(40) %request_mutex_)
  %rate_bytes_per_sec_.i = getelementptr inbounds i8, ptr %this, i64 64
  store atomic i64 %bytes_per_second, ptr %rate_bytes_per_sec_.i monotonic, align 8
  %refill_period_us_.i.i = getelementptr inbounds i8, ptr %this, i64 56
  %0 = load atomic i64, ptr %refill_period_us_.i.i monotonic, align 8
  %div.i.i = sdiv i64 9223372036854775807, %bytes_per_second
  %cmp.i.i = icmp slt i64 %div.i.i, %0
  %mul.i.i = mul nsw i64 %0, %bytes_per_second
  %1 = sdiv i64 %mul.i.i, 1000000
  %retval.0.i.i = select i1 %cmp.i.i, i64 9223372036854, i64 %1
  %refill_bytes_per_period_.i = getelementptr inbounds i8, ptr %this, i64 72
  store atomic i64 %retval.0.i.i, ptr %refill_bytes_per_period_.i monotonic, align 8
  invoke void @_ZN7rocksdb4port5Mutex6UnlockEv(ptr noundef nonnull align 8 dereferenceable(40) %request_mutex_)
          to label %_ZN7rocksdb9MutexLockD2Ev.exit unwind label %terminate.lpad.i

terminate.lpad.i:                                 ; preds = %invoke.cont
  %2 = landingpad { ptr, i32 }
          catch ptr null
  %3 = extractvalue { ptr, i32 } %2, 0
  tail call void @__clang_call_terminate(ptr %3) #16
  unreachable

_ZN7rocksdb9MutexLockD2Ev.exit:                   ; preds = %invoke.cont
  ret void
}